Certificate:
    Data:
        Version: 3 (0x2)
        Serial Number: 2 (0x2)
        Signature Algorithm: sha256WithRSAEncryption
        Issuer: C=CN, ST=ShanXi, L=XA, O=TEST, OU=TEST, CN=example-ca.com/emailAddress=admin@example-ca.com
        Validity
            Not Before: Sep  6 04:09:39 2021 GMT
            Not After : Sep  6 04:09:39 2022 GMT
        Subject: C=CN, ST=ShanXi, O=TEST, OU=TEST, CN=example-site.com/emailAddress=admin@example-site.com
        Subject Public Key Info:
            Public Key Algorithm: rsaEncryption
                RSA Public-Key: (2048 bit)
                Modulus:
                    00:be:f4:e8:97:0d:ac:0b:e4:90:47:b3:77:8d:ce:
                    aa:65:02:86:72:c5:bc:9b:4a:25:83:4f:48:1e:f2:
                    c2:a3:5c:da:90:ce:08:bb:b4:67:15:6e:69:b4:ec:
                    15:41:17:ae:9a:86:7b:e8:95:17:c1:a0:e7:59:b2:
                    3d:71:73:01:27:eb:2c:32:86:51:52:27:21:f9:1d:
                    8b:fa:de:46:5f:0c:96:ab:27:fd:06:5c:27:2e:6a:
                    fb:26:23:46:81:56:c7:a9:57:9f:94:d2:67:4d:72:
                    89:bb:53:52:bd:41:93:22:0e:f9:7f:52:43:96:73:
                    bf:a3:c9:7b:36:64:33:0c:a3:40:ff:3e:77:06:4c:
                    e3:e4:2f:b9:a7:a3:45:d8:79:3e:ee:20:2a:3e:97:
                    21:7d:32:69:a0:85:88:7f:98:c4:fa:7e:26:c9:08:
                    97:16:e1:24:5c:84:bd:2e:b4:a7:83:a0:12:7f:9c:
                    5b:5e:6d:68:f9:6c:a8:07:52:2a:06:04:ab:cb:8c:
                    11:d8:93:15:f4:69:6d:b8:09:86:22:f8:59:33:47:
                    03:3c:44:1d:b0:5c:18:40:eb:4f:05:38:e2:76:6e:
                    a7:86:92:bf:0b:fd:a3:c5:63:ca:6b:4d:f5:c0:96:
                    21:e6:72:44:47:8d:61:16:5a:4f:90:1e:0c:e8:c1:
                    39:6f
                Exponent: 65537 (0x10001)
        X509v3 extensions:
            X509v3 Basic Constraints: 
                CA:FALSE
            Netscape Comment: 
                OpenSSL Generated Certificate
            X509v3 Subject Key Identifier: 
                13:5A:C6:4A:D8:63:1D:C5:B2:37:46:88:A0:51:18:11:EB:4B:4B:83
            X509v3 Authority Key Identifier: 
                DirName:/C=CN/ST=ShanXi/L=XA/O=TEST/OU=TEST/CN=example-ca.com/emailAddress=admin@example-ca.com
                serial:38:25:4B:86:12:C3:35:6F:DC:43:DE:44:85:D2:7D:88:C3:C0:41:62

    Signature Algorithm: sha256WithRSAEncryption
         38:08:dc:04:44:40:e2:de:f8:9c:eb:0c:f4:d8:d6:1a:d3:c1:
         13:d3:fc:ed:06:4a:7d:cc:02:e0:82:8e:f4:e0:e8:f0:d2:7e:
         8f:74:e3:85:54:79:ea:2e:c1:5c:77:d0:23:f1:d7:ac:a5:77:
         e3:dc:18:39:a9:93:3b:e4:15:76:15:29:58:9e:70:c3:d8:79:
         87:b6:69:86:a8:aa:f7:52:46:9d:7e:38:da:b4:0e:e6:83:2e:
         36:c6:d4:c2:63:67:bf:e4:f8:7b:bf:f5:82:35:72:d1:77:0e:
         77:70:08:d2:07:5f:dc:e2:ca:51:68:76:64:91:e2:3b:62:68:
         20:77:18:d1:7b:d9:a8:92:a3:25:e8:11:cd:0e:28:7b:56:28:
         cf:fe:03:12:1e:7b:22:e7:24:5c:4d:30:e7:de:61:d7:d0:af:
         f3:25:d8:c6:9d:64:78:ca:b9:eb:62:f9:d3:ab:03:2c:a4:3c:
         93:63:98:2e:90:3b:4e:17:de:f2:11:32:96:f7:d2:1c:4f:f6:
         26:db:18:d4:3e:0e:67:a0:7c:a9:a1:83:ab:bf:e5:95:c6:18:
         5a:fd:62:2a:6c:46:c9:97:b3:59:fd:cd:a8:8e:b9:2e:ac:8e:
         9f:2a:4a:76:f8:b7:6a:0c:dc:16:e4:05:fb:12:7f:c1:a4:9b:
         4a:e8:31:0c
-----BEGIN CERTIFICATE-----
MIIEkzCCA3ugAwIBAgIBAjANBgkqhkiG9w0BAQsFADCBhzELMAkGA1UEBhMCQ04x
DzANBgNVBAgMBlNoYW5YaTELMAkGA1UEBwwCWEExDTALBgNVBAoMBFRFU1QxDTAL
BgNVBAsMBFRFU1QxFzAVBgNVBAMMDmV4YW1wbGUtY2EuY29tMSMwIQYJKoZIhvcN
AQkBFhRhZG1pbkBleGFtcGxlLWNhLmNvbTAeFw0yMTA5MDYwNDA5MzlaFw0yMjA5
MDYwNDA5MzlaMH4xCzAJBgNVBAYTAkNOMQ8wDQYDVQQIDAZTaGFuWGkxDTALBgNV
BAoMBFRFU1QxDTALBgNVBAsMBFRFU1QxGTAXBgNVBAMMEGV4YW1wbGUtc2l0ZS5j
b20xJTAjBgkqhkiG9w0BCQEWFmFkbWluQGV4YW1wbGUtc2l0ZS5jb20wggEiMA0G
CSqGSIb3DQEBAQUAA4IBDwAwggEKAoIBAQC+9OiXDawL5JBHs3eNzqplAoZyxbyb
SiWDT0ge8sKjXNqQzgi7tGcVbmm07BVBF66ahnvolRfBoOdZsj1xcwEn6ywyhlFS
JyH5HYv63kZfDJarJ/0GXCcuavsmI0aBVsepV5+U0mdNcom7U1K9QZMiDvl/UkOW
c7+jyXs2ZDMMo0D/PncGTOPkL7mno0XYeT7uICo+lyF9MmmghYh/mMT6fibJCJcW
4SRchL0utKeDoBJ/nFtebWj5bKgHUioGBKvLjBHYkxX0aW24CYYi+FkzRwM8RB2w
XBhA608FOOJ2bqeGkr8L/aPFY8prTfXAliHmckRHjWEWWk+QHgzowTlvAgMBAAGj
ggEQMIIBDDAJBgNVHRMEAjAAMCwGCWCGSAGG+EIBDQQfFh1PcGVuU1NMIEdlbmVy
YXRlZCBDZXJ0aWZpY2F0ZTAdBgNVHQ4EFgQUE1rGSthjHcWyN0aIoFEYEetLS4Mw
gbEGA1UdIwSBqTCBpqGBjaSBijCBhzELMAkGA1UEBhMCQ04xDzANBgNVBAgMBlNo
YW5YaTELMAkGA1UEBwwCWEExDTALBgNVBAoMBFRFU1QxDTALBgNVBAsMBFRFU1Qx
FzAVBgNVBAMMDmV4YW1wbGUtY2EuY29tMSMwIQYJKoZIhvcNAQkBFhRhZG1pbkBl
eGFtcGxlLWNhLmNvbYIUOCVLhhLDNW/cQ95EhdJ9iMPAQWIwDQYJKoZIhvcNAQEL
BQADggEBADgI3AREQOLe+JzrDPTY1hrTwRPT/O0GSn3MAuCCjvTg6PDSfo9044VU
eeouwVx30CPx16yld+PcGDmpkzvkFXYVKViecMPYeYe2aYaoqvdSRp1+ONq0DuaD
LjbG1MJjZ7/k+Hu/9YI1ctF3DndwCNIHX9ziylFodmSR4jtiaCB3GNF72aiSoyXo
Ec0OKHtWKM/+AxIeeyLnJFxNMOfeYdfQr/Ml2MadZHjKueti+dOrAyykPJNjmC6Q
O04X3vIRMpb30hxP9ibbGNQ+DmegfKmhg6u/5ZXGGFr9YipsRsmXs1n9zaiOuS6s
jp8qSnb4t2oM3BbkBfsSf8Gkm0roMQw=
-----END CERTIFICATE-----
