Certificate:
    Data:
        Version: 3 (0x2)
        Serial Number: 1 (0x1)
    Signature Algorithm: sha256WithRSAEncryption
        Issuer: C=CN, ST=ShanXi, L=XiAn, O=PG, OU=PG, CN=*.example\xC3\xA3.com/emailAddress=875974254@qq.com
        Validity
            Not Before: Sep  4 09:15:26 2021 GMT
            Not After : Sep  4 09:15:26 2022 GMT
        Subject: C=CN, ST=ShanXi, O=PG, OU=PG, CN=yuanpei.me/emailAddress=qinyuanpei@163.com
        Subject Public Key Info:
            Public Key Algorithm: rsaEncryption
                Public-Key: (2048 bit)
                Modulus:
                    00:b1:95:0d:60:e9:36:f6:b5:12:28:a0:2a:86:5f:
                    30:7b:d8:c9:4d:11:25:bb:3c:a3:9a:ef:22:11:40:
                    1d:28:02:1b:5a:f2:20:45:6a:e3:58:b3:b2:f5:ee:
                    8b:0b:f0:0d:51:9d:2a:ee:d7:21:ab:f5:f4:57:ac:
                    84:c9:2b:29:72:2a:e8:2f:96:b9:01:bb:fa:87:fe:
                    b5:c4:f1:bd:b8:0a:ac:e6:4e:e7:f8:aa:4e:3c:0e:
                    ed:a5:96:44:8c:03:d2:1f:80:46:09:39:97:97:28:
                    52:da:a7:bf:ad:77:ad:ba:3e:36:21:bf:48:00:4e:
                    00:b0:60:92:42:f7:66:b6:b4:30:ef:08:1d:30:32:
                    23:8c:d2:57:6d:9f:8b:2f:5f:00:73:ef:5c:6f:a5:
                    7b:93:e3:39:53:2f:1b:2b:df:79:be:a8:ae:65:2b:
                    fa:9b:5d:2d:38:db:86:f4:c6:6e:d7:a9:9f:2a:a2:
                    47:69:e0:d5:df:25:b3:9d:21:ff:f3:80:ec:42:b8:
                    d4:5c:f2:cf:08:71:44:52:ad:40:b1:0b:64:56:8f:
                    47:04:d5:38:1f:a1:8a:36:98:99:66:e1:7a:c8:a3:
                    a4:be:19:a0:73:4b:ed:35:44:a6:a8:d0:88:11:ef:
                    c3:1c:f4:f7:ce:ef:98:fd:4d:d5:4a:55:56:40:cc:
                    11:23
                Exponent: 65537 (0x10001)
        X509v3 extensions:
            X509v3 Basic Constraints: 
                CA:FALSE
            Netscape Comment: 
                OpenSSL Generated Certificate
            X509v3 Subject Key Identifier: 
                F2:E0:87:B1:CF:FA:23:DA:41:D1:07:CD:6A:E1:B8:BA:CA:CB:4D:BE
            X509v3 Authority Key Identifier: 
                DirName:/C=CN/ST=ShanXi/L=XiAn/O=PG/OU=PG/CN=*.example\xC3\xA3.com/emailAddress=875974254@qq.com
                serial:D0:EB:78:0E:5D:3E:9C:30

    Signature Algorithm: sha256WithRSAEncryption
         58:53:7c:30:30:57:31:ed:e1:c0:c5:02:74:0c:17:77:60:07:
         7e:0e:7e:c2:e8:b0:93:4a:31:d2:34:bf:e6:9f:86:72:dd:8a:
         eb:a0:44:5c:d4:c0:d4:7c:cd:c1:c1:06:cf:7c:96:2f:cb:b7:
         91:ab:20:f3:47:ed:e4:ab:bd:e4:11:5c:76:74:64:74:a9:df:
         6d:1a:a6:3a:0c:5c:3e:6b:e9:5f:30:74:02:f8:ac:48:4e:ba:
         5c:9e:91:a8:72:f3:31:ea:d9:7a:e5:fe:dc:b4:94:9e:38:38:
         63:3a:0e:62:d2:33:fa:05:28:5b:0e:52:97:06:1c:7c:ce:55:
         52:10:1b:7f:07:f6:c5:a8:b7:bb:6c:e7:7b:9b:13:84:7f:6a:
         f8:ba:dd:82:8d:c8:28:c1:97:1a:4a:6b:4e:f7:5d:80:d8:14:
         a9:ab:a0:c0:2f:15:ad:4b:68:0e:26:9b:51:69:7b:0f:6f:98:
         ff:b3:54:c2:12:44:21:e2:bb:d3:80:4c:28:26:72:5f:13:c2:
         46:23:fb:7f:06:3a:5d:b0:3c:19:f5:8a:d2:84:15:ac:8e:91:
         b9:61:60:54:a1:ac:e8:6a:ff:37:9e:aa:86:6e:ab:81:05:61:
         c3:b5:c7:14:fa:c8:85:6c:49:d5:f5:e4:ec:48:a4:a8:61:ba:
         34:a5:23:3f
-----BEGIN CERTIFICATE-----
MIIEbjCCA1agAwIBAgIBATANBgkqhkiG9w0BAQsFADCBgjELMAkGA1UEBhMCQ04x
DzANBgNVBAgMBlNoYW5YaTENMAsGA1UEBwwEWGlBbjELMAkGA1UECgwCUEcxCzAJ
BgNVBAsMAlBHMRgwFgYDVQQDDA8qLmV4YW1wbGXDoy5jb20xHzAdBgkqhkiG9w0B
CQEWEDg3NTk3NDI1NEBxcS5jb20wHhcNMjEwOTA0MDkxNTI2WhcNMjIwOTA0MDkx
NTI2WjBwMQswCQYDVQQGEwJDTjEPMA0GA1UECAwGU2hhblhpMQswCQYDVQQKDAJQ
RzELMAkGA1UECwwCUEcxEzARBgNVBAMMCnl1YW5wZWkubWUxITAfBgkqhkiG9w0B
CQEWEnFpbnl1YW5wZWlAMTYzLmNvbTCCASIwDQYJKoZIhvcNAQEBBQADggEPADCC
AQoCggEBALGVDWDpNva1EiigKoZfMHvYyU0RJbs8o5rvIhFAHSgCG1ryIEVq41iz
svXuiwvwDVGdKu7XIav19FeshMkrKXIq6C+WuQG7+of+tcTxvbgKrOZO5/iqTjwO
7aWWRIwD0h+ARgk5l5coUtqnv613rbo+NiG/SABOALBgkkL3Zra0MO8IHTAyI4zS
V22fiy9fAHPvXG+le5PjOVMvGyvfeb6ormUr+ptdLTjbhvTGbtepnyqiR2ng1d8l
s50h//OA7EK41FzyzwhxRFKtQLELZFaPRwTVOB+hijaYmWbhesijpL4ZoHNL7TVE
pqjQiBHvwxz0987vmP1N1UpVVkDMESMCAwEAAaOB/zCB/DAJBgNVHRMEAjAAMCwG
CWCGSAGG+EIBDQQfFh1PcGVuU1NMIEdlbmVyYXRlZCBDZXJ0aWZpY2F0ZTAdBgNV
HQ4EFgQU8uCHsc/6I9pB0QfNauG4usrLTb4wgaEGA1UdIwSBmTCBlqGBiKSBhTCB
gjELMAkGA1UEBhMCQ04xDzANBgNVBAgMBlNoYW5YaTENMAsGA1UEBwwEWGlBbjEL
MAkGA1UECgwCUEcxCzAJBgNVBAsMAlBHMRgwFgYDVQQDDA8qLmV4YW1wbGXDoy5j
b20xHzAdBgkqhkiG9w0BCQEWEDg3NTk3NDI1NEBxcS5jb22CCQDQ63gOXT6cMDAN
BgkqhkiG9w0BAQsFAAOCAQEAWFN8MDBXMe3hwMUCdAwXd2AHfg5+wuiwk0ox0jS/
5p+Gct2K66BEXNTA1HzNwcEGz3yWL8u3kasg80ft5Ku95BFcdnRkdKnfbRqmOgxc
PmvpXzB0AvisSE66XJ6RqHLzMerZeuX+3LSUnjg4YzoOYtIz+gUoWw5SlwYcfM5V
UhAbfwf2xai3u2zne5sThH9q+Lrdgo3IKMGXGkprTvddgNgUqaugwC8VrUtoDiab
UWl7D2+Y/7NUwhJEIeK704BMKCZyXxPCRiP7fwY6XbA8GfWK0oQVrI6RuWFgVKGs
6Gr/N56qhm6rgQVhw7XHFPrIhWxJ1fXk7EikqGG6NKUjPw==
-----END CERTIFICATE-----
